target datalayout = "e-m:e-p270:32:32-p271:32:32-p272:64:64-i64:64-i128:128-f80:128-n8:16:32:64-S128"
target triple = "x86_64-pc-linux-gnu"

%struct.mbedtls_mpi = type { ptr, i16, i16 }
%union.mbedtls_ssl_user_data_t = type { i64 }
%struct.mbedtls_ssl_context = type { ptr, i32, i32, i32, i32, i32, ptr, ptr, ptr, ptr, ptr, ptr, ptr, ptr, ptr, ptr, ptr, ptr, ptr, ptr, ptr, ptr, ptr, ptr, ptr, ptr, ptr, ptr, ptr, ptr, ptr, ptr, ptr, i32, i64, i64, i16, i64, i64, i64, i64, i32, i32, i8, i8, i32, i8, ptr, ptr, ptr, ptr, ptr, ptr, ptr, i32, i64, i64, [8 x i8], i16, ptr, ptr, ptr, i64, i32, i64, [12 x i8], [12 x i8], [32 x i8], i8, i8, ptr, ptr, %union.mbedtls_ssl_user_data_t }
%struct.mbedtls_md_context_t = type { ptr, ptr, ptr }
%struct.mbedtls_ssl_handshake_params = type { i8, i8, i8, i8, i8, i32, i8, i8, i8, i8, ptr, ptr, ptr, ptr, ptr, i8, i8, i8, i8, i16, i16, [20 x i16], ptr, ptr, %struct.mbedtls_dhm_context, %struct.mbedtls_ecdh_context, i16, i64, i32, i8, [1024 x i8], i64, ptr, ptr, i64, i16, ptr, ptr, ptr, ptr, %struct.anon, ptr, i16, i8, i32, i32, i32, ptr, ptr, ptr, i32, ptr, [8 x i8], i8, [32 x i8], i8, i16, %struct.mbedtls_md_context_t, %struct.mbedtls_md_context_t, i16, i8, %union.anon.1, [64 x i8], [1076 x i8], i64, i32, i32, i8, ptr, ptr, %union.anon.4, %struct.mbedtls_ssl_tls13_handshake_secrets, ptr, i64, ptr }
%struct.mbedtls_dhm_context = type { %struct.mbedtls_mpi, %struct.mbedtls_mpi, %struct.mbedtls_mpi, %struct.mbedtls_mpi, %struct.mbedtls_mpi, %struct.mbedtls_mpi, %struct.mbedtls_mpi, %struct.mbedtls_mpi, %struct.mbedtls_mpi, %struct.mbedtls_mpi }
%struct.mbedtls_ecdh_context = type { i8, i32, i32, %union.anon }
%union.anon = type { %struct.mbedtls_ecdh_context_mbed }
%struct.mbedtls_ecdh_context_mbed = type { %struct.mbedtls_ecp_group, %struct.mbedtls_mpi, %struct.mbedtls_ecp_point, %struct.mbedtls_ecp_point, %struct.mbedtls_mpi }
%struct.mbedtls_ecp_group = type { i32, %struct.mbedtls_mpi, %struct.mbedtls_mpi, %struct.mbedtls_mpi, %struct.mbedtls_ecp_point, %struct.mbedtls_mpi, i64, i64, i32, ptr, ptr, ptr, ptr, ptr, i64 }
%struct.mbedtls_ecp_point = type { %struct.mbedtls_mpi, %struct.mbedtls_mpi, %struct.mbedtls_mpi }
%struct.anon = type { i64, i8, [4 x %struct.mbedtls_ssl_hs_buffer], %struct.anon.0 }
%struct.mbedtls_ssl_hs_buffer = type { i8, ptr, i64 }
%struct.anon.0 = type { ptr, i64, i32 }
%union.anon.1 = type { %struct.anon.2 }
%struct.anon.2 = type { i8, [64 x i8], i64 }
%union.anon.4 = type { [64 x i8] }
%struct.mbedtls_ssl_tls13_handshake_secrets = type { [64 x i8], [64 x i8] }
%struct.mbedtls_ssl_key_cert = type { ptr, ptr, ptr }

; Function Attrs: nounwind uwtable
define internal void @ssl_key_cert_free(ptr noundef %0) #0 {
  %2 = alloca ptr, align 8
  %3 = alloca ptr, align 8
  %4 = alloca ptr, align 8
  store ptr %0, ptr %2, align 8, !tbaa !188
  call void @llvm.lifetime.start.p0(i64 8, ptr %3) #11
  %5 = load ptr, ptr %2, align 8, !tbaa !188
  store ptr %5, ptr %3, align 8, !tbaa !188
  call void @llvm.lifetime.start.p0(i64 8, ptr %4) #11
  br label %6

6:                                                ; preds = %9, %1
  %7 = load ptr, ptr %3, align 8, !tbaa !188
  %8 = icmp ne ptr %7, null
  br i1 %8, label %9, label %15

9:                                                ; preds = %6
  %10 = load ptr, ptr %3, align 8, !tbaa !188
  %11 = getelementptr inbounds nuw %struct.mbedtls_ssl_key_cert, ptr %10, i32 0, i32 2
  %12 = load ptr, ptr %11, align 8, !tbaa !192
  store ptr %12, ptr %4, align 8, !tbaa !188
  %13 = load ptr, ptr %3, align 8, !tbaa !188
  call void @free(ptr noundef %13) #11
  %14 = load ptr, ptr %4, align 8, !tbaa !188
  store ptr %14, ptr %3, align 8, !tbaa !188
  br label %6, !llvm.loop !259

15:                                               ; preds = %6
  call void @llvm.lifetime.end.p0(i64 8, ptr %4) #11
  call void @llvm.lifetime.end.p0(i64 8, ptr %3) #11
  ret void
}

; Function Attrs: nounwind uwtable
define internal i32 @ssl_append_key_cert(ptr noundef %0, ptr noundef %1, ptr noundef %2) #0 {
  %4 = alloca i32, align 4
  %5 = alloca ptr, align 8
  %6 = alloca ptr, align 8
  %7 = alloca ptr, align 8
  %8 = alloca ptr, align 8
  %9 = alloca i32, align 4
  %10 = alloca ptr, align 8
  store ptr %0, ptr %5, align 8, !tbaa !186
  store ptr %1, ptr %6, align 8, !tbaa !183
  store ptr %2, ptr %7, align 8, !tbaa !184
  call void @llvm.lifetime.start.p0(i64 8, ptr %8) #11
  %11 = load ptr, ptr %6, align 8, !tbaa !183
  %12 = icmp eq ptr %11, null
  br i1 %12, label %13, label %17

13:                                               ; preds = %3
  %14 = load ptr, ptr %5, align 8, !tbaa !186
  %15 = load ptr, ptr %14, align 8, !tbaa !188
  call void @ssl_key_cert_free(ptr noundef %15)
  %16 = load ptr, ptr %5, align 8, !tbaa !186
  store ptr null, ptr %16, align 8, !tbaa !188
  store i32 0, ptr %4, align 4
  store i32 1, ptr %9, align 4
  br label %54

17:                                               ; preds = %3
  %18 = call noalias ptr @calloc(i64 noundef 1, i64 noundef 24) #12
  store ptr %18, ptr %8, align 8, !tbaa !188
  %19 = load ptr, ptr %8, align 8, !tbaa !188
  %20 = icmp eq ptr %19, null
  br i1 %20, label %21, label %22

21:                                               ; preds = %17
  store i32 -32512, ptr %4, align 4
  store i32 1, ptr %9, align 4
  br label %54

22:                                               ; preds = %17
  %23 = load ptr, ptr %6, align 8, !tbaa !183
  %24 = load ptr, ptr %8, align 8, !tbaa !188
  %25 = getelementptr inbounds nuw %struct.mbedtls_ssl_key_cert, ptr %24, i32 0, i32 0
  store ptr %23, ptr %25, align 8, !tbaa !189
  %26 = load ptr, ptr %7, align 8, !tbaa !184
  %27 = load ptr, ptr %8, align 8, !tbaa !188
  %28 = getelementptr inbounds nuw %struct.mbedtls_ssl_key_cert, ptr %27, i32 0, i32 1
  store ptr %26, ptr %28, align 8, !tbaa !191
  %29 = load ptr, ptr %8, align 8, !tbaa !188
  %30 = getelementptr inbounds nuw %struct.mbedtls_ssl_key_cert, ptr %29, i32 0, i32 2
  store ptr null, ptr %30, align 8, !tbaa !192
  %31 = load ptr, ptr %5, align 8, !tbaa !186
  %32 = load ptr, ptr %31, align 8, !tbaa !188
  %33 = icmp eq ptr %32, null
  br i1 %33, label %34, label %37

34:                                               ; preds = %22
  %35 = load ptr, ptr %8, align 8, !tbaa !188
  %36 = load ptr, ptr %5, align 8, !tbaa !186
  store ptr %35, ptr %36, align 8, !tbaa !188
  br label %53

37:                                               ; preds = %22
  call void @llvm.lifetime.start.p0(i64 8, ptr %10) #11
  %38 = load ptr, ptr %5, align 8, !tbaa !186
  %39 = load ptr, ptr %38, align 8, !tbaa !188
  store ptr %39, ptr %10, align 8, !tbaa !188
  br label %40

40:                                               ; preds = %45, %37
  %41 = load ptr, ptr %10, align 8, !tbaa !188
  %42 = getelementptr inbounds nuw %struct.mbedtls_ssl_key_cert, ptr %41, i32 0, i32 2
  %43 = load ptr, ptr %42, align 8, !tbaa !192
  %44 = icmp ne ptr %43, null
  br i1 %44, label %45, label %49

45:                                               ; preds = %40
  %46 = load ptr, ptr %10, align 8, !tbaa !188
  %47 = getelementptr inbounds nuw %struct.mbedtls_ssl_key_cert, ptr %46, i32 0, i32 2
  %48 = load ptr, ptr %47, align 8, !tbaa !192
  store ptr %48, ptr %10, align 8, !tbaa !188
  br label %40, !llvm.loop !193

49:                                               ; preds = %40
  %50 = load ptr, ptr %8, align 8, !tbaa !188
  %51 = load ptr, ptr %10, align 8, !tbaa !188
  %52 = getelementptr inbounds nuw %struct.mbedtls_ssl_key_cert, ptr %51, i32 0, i32 2
  store ptr %50, ptr %52, align 8, !tbaa !192
  call void @llvm.lifetime.end.p0(i64 8, ptr %10) #11
  br label %53

53:                                               ; preds = %49, %34
  store i32 0, ptr %4, align 4
  store i32 1, ptr %9, align 4
  br label %54

54:                                               ; preds = %53, %21, %13
  call void @llvm.lifetime.end.p0(i64 8, ptr %8) #11
  %55 = load i32, ptr %4, align 4
  ret i32 %55
}

; Function Attrs: nounwind uwtable
define hidden i32 @mbedtls_ssl_set_hs_own_cert(ptr noundef %0, ptr noundef %1, ptr noundef %2) #0 {
  %4 = alloca ptr, align 8
  %5 = alloca ptr, align 8
  %6 = alloca ptr, align 8
  store ptr %0, ptr %4, align 8, !tbaa !27
  store ptr %1, ptr %5, align 8, !tbaa !183
  store ptr %2, ptr %6, align 8, !tbaa !184
  %7 = load ptr, ptr %4, align 8, !tbaa !27
  %8 = getelementptr inbounds nuw %struct.mbedtls_ssl_context, ptr %7, i32 0, i32 16
  %9 = load ptr, ptr %8, align 8, !tbaa !78
  %10 = getelementptr inbounds nuw %struct.mbedtls_ssl_handshake_params, ptr %9, i32 0, i32 37
  %11 = load ptr, ptr %5, align 8, !tbaa !183
  %12 = load ptr, ptr %6, align 8, !tbaa !184
  %13 = call i32 @ssl_append_key_cert(ptr noundef %10, ptr noundef %11, ptr noundef %12)
  ret i32 %13
}