; Function Attrs: nounwind uwtable
define hidden range(i32 -32512, 1) i32 @mbedtls_ssl_set_hs_own_cert(ptr noundef readonly captures(none) %0, ptr noundef %1, ptr noundef %2) local_unnamed_addr #1 {
  %4 = getelementptr inbounds nuw i8, ptr %0, i64 112
  %5 = load ptr, ptr %4, align 8, !tbaa !70
  %6 = getelementptr inbounds nuw i8, ptr %5, i64 1712
  %7 = icmp eq ptr %1, null
  br i1 %7, label %8, label %12

8:                                                ; preds = %3
  %9 = load ptr, ptr %6, align 8, !tbaa !164
  %.not5.i.i = icmp eq ptr %9, null
  br i1 %.not5.i.i, label %ssl_key_cert_free.exit.i, label %.lr.ph.i.i

.lr.ph.i.i:                                       ; preds = %8, %.lr.ph.i.i
  %.06.i.i = phi ptr [ %11, %.lr.ph.i.i ], [ %9, %8 ]
  %10 = getelementptr inbounds nuw i8, ptr %.06.i.i, i64 16
  %11 = load ptr, ptr %10, align 8, !tbaa !165
  tail call void @free(ptr noundef nonnull %.06.i.i) #26
  %.not.i.i = icmp eq ptr %11, null
  br i1 %.not.i.i, label %ssl_key_cert_free.exit.i, label %.lr.ph.i.i, !llvm.loop !168

ssl_key_cert_free.exit.i:                         ; preds = %.lr.ph.i.i, %8
  store ptr null, ptr %6, align 8, !tbaa !164
  br label %ssl_append_key_cert.exit

12:                                               ; preds = %3
  %13 = tail call noalias dereferenceable_or_null(24) ptr @calloc(i64 noundef 1, i64 noundef 24) #27
  %14 = icmp eq ptr %13, null
  br i1 %14, label %ssl_append_key_cert.exit, label %15

15:                                               ; preds = %12
  store ptr %1, ptr %13, align 8, !tbaa !169
  %16 = getelementptr inbounds nuw i8, ptr %13, i64 8
  store ptr %2, ptr %16, align 8, !tbaa !170
  %17 = load ptr, ptr %6, align 8, !tbaa !164
  %18 = icmp eq ptr %17, null
  br i1 %18, label %19, label %.preheader.i

19:                                               ; preds = %15
  store ptr %13, ptr %6, align 8, !tbaa !164
  br label %ssl_append_key_cert.exit

.preheader.i:                                     ; preds = %15, %.preheader.i
  %.0.i = phi ptr [ %21, %.preheader.i ], [ %17, %15 ]
  %20 = getelementptr inbounds nuw i8, ptr %.0.i, i64 16
  %21 = load ptr, ptr %20, align 8, !tbaa !165
  %.not.i = icmp eq ptr %21, null
  br i1 %.not.i, label %22, label %.preheader.i, !llvm.loop !171

22:                                               ; preds = %.preheader.i
  %23 = getelementptr inbounds nuw i8, ptr %.0.i, i64 16
  store ptr %13, ptr %23, align 8, !tbaa !165
  br label %ssl_append_key_cert.exit

ssl_append_key_cert.exit:                         ; preds = %ssl_key_cert_free.exit.i, %12, %19, %22
  %.017.i = phi i32 [ 0, %ssl_key_cert_free.exit.i ], [ -32512, %12 ], [ 0, %22 ], [ 0, %19 ]
  ret i32 %.017.i
}